target datalayout = "e-m:e-p270:32:32-p271:32:32-p272:64:64-i64:64-i128:128-f80:128-n8:16:32:64-S128"
target triple = "x86_64-pc-linux-gnu"

%"class.llvm::MemoryLocation" = type { ptr, %"class.llvm::LocationSize", %"struct.llvm::AAMDNodes" }
%"class.llvm::LocationSize" = type { i64 }
%"struct.llvm::AAMDNodes" = type { ptr, ptr, ptr, ptr }
%"class.llvm::AliasResult" = type { i32 }

; Function Attrs: mustprogress nounwind uwtable
define dso_local i32 @_ZN4llvm13BasicAAResult5aliasERKNS_14MemoryLocationES3_RNS_11AAQueryInfoEPKNS_11InstructionE(ptr noundef nonnull align 8 dereferenceable(200) %0, ptr noundef nonnull align 8 dereferenceable(48) %1, ptr noundef nonnull align 8 dereferenceable(48) %2, ptr noundef nonnull align 8 dereferenceable(498) %3, ptr noundef %4) #1 align 2 {
  %6 = alloca %"class.llvm::AliasResult", align 4
  %7 = alloca ptr, align 8
  %8 = alloca ptr, align 8
  %9 = alloca ptr, align 8
  %10 = alloca ptr, align 8
  %11 = alloca ptr, align 8
  %12 = alloca %"class.llvm::LocationSize", align 8
  %13 = alloca %"class.llvm::LocationSize", align 8
  store ptr %0, ptr %7, align 8
  store ptr %1, ptr %8, align 8
  store ptr %2, ptr %9, align 8
  store ptr %3, ptr %10, align 8
  store ptr %4, ptr %11, align 8
  %14 = load ptr, ptr %7, align 8
  %15 = load ptr, ptr %8, align 8
  %16 = getelementptr inbounds nuw %"class.llvm::MemoryLocation", ptr %15, i32 0, i32 0
  %17 = load ptr, ptr %16, align 8
  %18 = load ptr, ptr %8, align 8
  %19 = getelementptr inbounds nuw %"class.llvm::MemoryLocation", ptr %18, i32 0, i32 1
  call void @llvm.memcpy.p0.p0.i64(ptr align 8 %12, ptr align 8 %19, i64 8, i1 false)
  %20 = load ptr, ptr %9, align 8
  %21 = getelementptr inbounds nuw %"class.llvm::MemoryLocation", ptr %20, i32 0, i32 0
  %22 = load ptr, ptr %21, align 8
  %23 = load ptr, ptr %9, align 8
  %24 = getelementptr inbounds nuw %"class.llvm::MemoryLocation", ptr %23, i32 0, i32 1
  call void @llvm.memcpy.p0.p0.i64(ptr align 8 %13, ptr align 8 %24, i64 8, i1 false)
  %25 = load ptr, ptr %10, align 8
  %26 = load ptr, ptr %11, align 8
  %27 = getelementptr inbounds nuw %"class.llvm::LocationSize", ptr %12, i32 0, i32 0
  %28 = load i64, ptr %27, align 8
  %29 = getelementptr inbounds nuw %"class.llvm::LocationSize", ptr %13, i32 0, i32 0
  %30 = load i64, ptr %29, align 8
  %31 = call i32 @_ZN4llvm13BasicAAResult10aliasCheckEPKNS_5ValueENS_12LocationSizeES3_S4_RNS_11AAQueryInfoEPKNS_11InstructionE(ptr noundef nonnull align 8 dereferenceable(200) %14, ptr noundef %17, i64 %28, ptr noundef %22, i64 %30, ptr noundef nonnull align 8 dereferenceable(498) %25, ptr noundef %26)
  %32 = getelementptr inbounds nuw %"class.llvm::AliasResult", ptr %6, i32 0, i32 0
  store i32 %31, ptr %32, align 4
  %33 = getelementptr inbounds nuw %"class.llvm::AliasResult", ptr %6, i32 0, i32 0
  %34 = load i32, ptr %33, align 4
  ret i32 %34
}