; Function Attrs: mustprogress nounwind uwtable
define dso_local i32 @_ZN4llvm13BasicAAResult5aliasERKNS_14MemoryLocationES3_RNS_11AAQueryInfoEPKNS_11InstructionE(ptr nocapture noundef nonnull readonly align 8 dereferenceable(200) %0, ptr nocapture noundef nonnull readonly align 8 dereferenceable(48) %1, ptr nocapture noundef nonnull readonly align 8 dereferenceable(48) %2, ptr noundef nonnull align 8 dereferenceable(498) %3, ptr noundef %4) local_unnamed_addr #0 align 2 {
  %6 = load ptr, ptr %1, align 8
  %7 = getelementptr inbounds nuw i8, ptr %1, i64 8
  %.sroa.01.0.copyload = load i64, ptr %7, align 8
  %8 = load ptr, ptr %2, align 8
  %9 = getelementptr inbounds nuw i8, ptr %2, i64 8
  %.sroa.0.0.copyload = load i64, ptr %9, align 8
  %10 = tail call i32 @_ZN4llvm13BasicAAResult10aliasCheckEPKNS_5ValueENS_12LocationSizeES3_S4_RNS_11AAQueryInfoEPKNS_11InstructionE(ptr noundef nonnull align 8 dereferenceable(200) %0, ptr noundef %6, i64 %.sroa.01.0.copyload, ptr noundef %8, i64 %.sroa.0.0.copyload, ptr noundef nonnull align 8 dereferenceable(498) %3, ptr noundef %4)
  ret i32 %10
}